target datalayout = "e-m:e-p270:32:32-p271:32:32-p272:64:64-i64:64-i128:128-f80:128-n8:16:32:64-S128"
target triple = "x86_64-unknown-linux-gnu"

%"class.llvh::StringRef" = type { ptr, i64 }
%"class.llvh::SmallVectorBase" = type { ptr, i32, i32 }
%"class.llvh::ArrayRef.323" = type { ptr, i64 }

; Function Attrs: mustprogress nounwind uwtable
define linkonce_odr hidden void @_ZN4llvh8ArrayRefIDsEC2EPKDsm(ptr noundef nonnull align 8 dereferenceable(16) %this, ptr noundef %data, i64 noundef %length) unnamed_addr #1 comdat align 2 {
entry:
  %this.addr = alloca ptr, align 8
  %data.addr = alloca ptr, align 8
  %length.addr = alloca i64, align 8
  store ptr %this, ptr %this.addr, align 8
  store ptr %data, ptr %data.addr, align 8
  store i64 %length, ptr %length.addr, align 8
  %this1 = load ptr, ptr %this.addr, align 8
  %Data = getelementptr inbounds %"class.llvh::ArrayRef.323", ptr %this1, i32 0, i32 0
  %0 = load ptr, ptr %data.addr, align 8
  store ptr %0, ptr %Data, align 8
  %Length = getelementptr inbounds %"class.llvh::ArrayRef.323", ptr %this1, i32 0, i32 1
  %1 = load i64, ptr %length.addr, align 8
  store i64 %1, ptr %Length, align 8
  ret void
}

; Function Attrs: mustprogress nounwind uwtable
define linkonce_odr hidden noundef i64 @_ZNK4llvh15SmallVectorBase4sizeEv(ptr noundef nonnull align 8 dereferenceable(16) %this) #1 comdat align 2 {
entry:
  %this.addr = alloca ptr, align 8
  store ptr %this, ptr %this.addr, align 8
  %this1 = load ptr, ptr %this.addr, align 8
  %Size = getelementptr inbounds %"class.llvh::SmallVectorBase", ptr %this1, i32 0, i32 1
  %0 = load i32, ptr %Size, align 8
  %conv = zext i32 %0 to i64
  ret i64 %conv
}

; Function Attrs: mustprogress uwtable
define linkonce_odr hidden noundef ptr @_ZN4llvh25SmallVectorTemplateCommonItvE4dataEv(ptr noundef nonnull align 8 dereferenceable(16) %this) #0 comdat align 2 {
entry:
  %this.addr.i = alloca ptr, align 8
  %this.addr = alloca ptr, align 8
  store ptr %this, ptr %this.addr, align 8
  %this1 = load ptr, ptr %this.addr, align 8
  store ptr %this1, ptr %this.addr.i, align 8
  %this1.i = load ptr, ptr %this.addr.i, align 8
  %0 = load ptr, ptr %this1.i, align 8
  ret ptr %0
}

; Function Attrs: mustprogress nounwind uwtable
define linkonce_odr hidden void @_ZN4llvh8ArrayRefIDsEC2ILm34EEERAT__KDs(ptr noundef nonnull align 8 dereferenceable(16) %this, ptr noundef nonnull align 2 dereferenceable(68) %Arr) unnamed_addr #1 comdat align 2 {
entry:
  %this.addr = alloca ptr, align 8
  %Arr.addr = alloca ptr, align 8
  store ptr %this, ptr %this.addr, align 8
  store ptr %Arr, ptr %Arr.addr, align 8
  %this1 = load ptr, ptr %this.addr, align 8
  %Data = getelementptr inbounds %"class.llvh::ArrayRef.323", ptr %this1, i32 0, i32 0
  %0 = load ptr, ptr %Arr.addr, align 8
  %arraydecay = getelementptr inbounds [34 x i16], ptr %0, i64 0, i64 0
  store ptr %arraydecay, ptr %Data, align 8
  %Length = getelementptr inbounds %"class.llvh::ArrayRef.323", ptr %this1, i32 0, i32 1
  store i64 34, ptr %Length, align 8
  ret void
}

; Function Attrs: mustprogress uwtable
define hidden { ptr, i64 } @_ZN8facebook6hermes17HermesRuntimeImpl18utf16FromErrorWhatERKSt9exceptionRN4llvh15SmallVectorImplItEE(ptr noundef nonnull align 8 dereferenceable(184) %this, ptr noundef nonnull align 8 dereferenceable(8) %ex, ptr noundef nonnull align 8 dereferenceable(16) %buf) #0 align 2 {
entry:
  %this.addr.i = alloca ptr, align 8
  %Str.addr.i = alloca ptr, align 8
  %retval = alloca %"class.llvh::ArrayRef.323", align 8
  %this.addr = alloca ptr, align 8
  %ex.addr = alloca ptr, align 8
  %buf.addr = alloca ptr, align 8
  %agg.tmp = alloca %"class.llvh::StringRef", align 8
  store ptr %this, ptr %this.addr, align 8
  store ptr %ex, ptr %ex.addr, align 8
  store ptr %buf, ptr %buf.addr, align 8
  %0 = load ptr, ptr %ex.addr, align 8
  %vtable = load ptr, ptr %0, align 8
  %vfn = getelementptr inbounds ptr, ptr %vtable, i64 2
  %1 = load ptr, ptr %vfn, align 8
  %call = call noundef ptr %1(ptr noundef nonnull align 8 dereferenceable(8) %0) #19
  store ptr %agg.tmp, ptr %this.addr.i, align 8
  store ptr %call, ptr %Str.addr.i, align 8
  %this1.i = load ptr, ptr %this.addr.i, align 8
  %2 = load ptr, ptr %Str.addr.i, align 8
  store ptr %2, ptr %this1.i, align 8
  %Length.i = getelementptr inbounds %"class.llvh::StringRef", ptr %this1.i, i32 0, i32 1
  %3 = load ptr, ptr %Str.addr.i, align 8
  %tobool.i = icmp ne ptr %3, null
  br i1 %tobool.i, label %cond.true.i, label %cond.false.i

cond.true.i:                                      ; preds = %entry
  %4 = load ptr, ptr %Str.addr.i, align 8
  %call.i = call i64 @strlen(ptr noundef %4) #20
  br label %_ZN4llvh9StringRefC2EPKc.exit

cond.false.i:                                     ; preds = %entry
  br label %_ZN4llvh9StringRefC2EPKc.exit

_ZN4llvh9StringRefC2EPKc.exit:                    ; preds = %cond.false.i, %cond.true.i
  %cond.i = phi i64 [ %call.i, %cond.true.i ], [ 0, %cond.false.i ]
  store i64 %cond.i, ptr %Length.i, align 8
  %5 = load ptr, ptr %buf.addr, align 8
  %6 = getelementptr inbounds { ptr, i64 }, ptr %agg.tmp, i32 0, i32 0
  %7 = load ptr, ptr %6, align 8
  %8 = getelementptr inbounds { ptr, i64 }, ptr %agg.tmp, i32 0, i32 1
  %9 = load i64, ptr %8, align 8
  %call2 = call noundef zeroext i1 @_ZN4llvh24convertUTF8ToUTF16StringENS_9StringRefERNS_15SmallVectorImplItEE(ptr %7, i64 %9, ptr noundef nonnull align 8 dereferenceable(16) %5)
  br i1 %call2, label %if.end, label %if.then

if.then:                                          ; preds = %_ZN4llvh9StringRefC2EPKc.exit
  call void @_ZN4llvh8ArrayRefIDsEC2ILm34EEERAT__KDs(ptr noundef nonnull align 8 dereferenceable(16) %retval, ptr noundef nonnull align 2 dereferenceable(68) @.str.15)
  br label %return

if.end:                                           ; preds = %_ZN4llvh9StringRefC2EPKc.exit
  %10 = load ptr, ptr %buf.addr, align 8
  %call3 = call noundef ptr @_ZN4llvh25SmallVectorTemplateCommonItvE4dataEv(ptr noundef nonnull align 8 dereferenceable(16) %10)
  %11 = load ptr, ptr %buf.addr, align 8
  %call4 = call noundef i64 @_ZNK4llvh15SmallVectorBase4sizeEv(ptr noundef nonnull align 8 dereferenceable(16) %11)
  call void @_ZN4llvh8ArrayRefIDsEC2EPKDsm(ptr noundef nonnull align 8 dereferenceable(16) %retval, ptr noundef %call3, i64 noundef %call4)
  br label %return

return:                                           ; preds = %if.end, %if.then
  %12 = load { ptr, i64 }, ptr %retval, align 8
  ret { ptr, i64 } %12
}