; Function Attrs: mustprogress uwtable
define hidden { ptr, i64 } @_ZN8facebook6hermes17HermesRuntimeImpl18utf16FromErrorWhatERKSt9exceptionRN4llvh15SmallVectorImplItEE(ptr nocapture nonnull readnone align 8 %this, ptr noundef nonnull align 8 dereferenceable(8) %ex, ptr noundef nonnull align 8 dereferenceable(16) %buf) local_unnamed_addr #0 align 2 {
entry:
  %vtable = load ptr, ptr %ex, align 8
  %vfn = getelementptr inbounds i8, ptr %vtable, i64 16
  %0 = load ptr, ptr %vfn, align 8
  %call = tail call noundef ptr %0(ptr noundef nonnull align 8 dereferenceable(8) %ex) #37
  %tobool.i.not = icmp eq ptr %call, null
  br i1 %tobool.i.not, label %_ZN4llvh9StringRefC2EPKc.exit, label %cond.true.i

cond.true.i:                                      ; preds = %entry
  %call.i = tail call i64 @strlen(ptr noundef nonnull dereferenceable(1) %call) #38
  br label %_ZN4llvh9StringRefC2EPKc.exit

_ZN4llvh9StringRefC2EPKc.exit:                    ; preds = %entry, %cond.true.i
  %cond.i = phi i64 [ %call.i, %cond.true.i ], [ 0, %entry ]
  %call2 = tail call noundef zeroext i1 @_ZN4llvh24convertUTF8ToUTF16StringENS_9StringRefERNS_15SmallVectorImplItEE(ptr %call, i64 %cond.i, ptr noundef nonnull align 8 dereferenceable(16) %buf)
  %1 = load ptr, ptr %buf, align 8
  %Size.i = getelementptr inbounds i8, ptr %buf, i64 8
  %2 = load i32, ptr %Size.i, align 8
  %conv.i = zext i32 %2 to i64
  %retval.sroa.3.0 = select i1 %call2, i64 %conv.i, i64 34
  %retval.sroa.0.0 = select i1 %call2, ptr %1, ptr @.str.15
  %.fca.0.insert = insertvalue { ptr, i64 } poison, ptr %retval.sroa.0.0, 0
  %.fca.1.insert = insertvalue { ptr, i64 } %.fca.0.insert, i64 %retval.sroa.3.0, 1
  ret { ptr, i64 } %.fca.1.insert
}